target datalayout = "e-m:e-p270:32:32-p271:32:32-p272:64:64-i64:64-i128:128-f80:128-n8:16:32:64-S128"
target triple = "x86_64-pc-linux-gnu"

%"class.icu_77::FieldPositionHandler.base" = type <{ ptr, i32 }>
%"class.icu_77::FieldPositionIteratorHandler" = type { %"class.icu_77::FieldPositionHandler.base", ptr, ptr, i32, i32 }

; Function Attrs: inlinehint mustprogress nounwind uwtable
define internal noundef signext i8 @_ZL9U_SUCCESS10UErrorCode(i32 noundef %0) #2 {
  %2 = alloca i32, align 4
  store i32 %0, ptr %2, align 4, !tbaa !15
  %3 = load i32, ptr %2, align 4, !tbaa !15
  %4 = icmp sle i32 %3, 0
  %5 = zext i1 %4 to i8
  ret i8 %5
}

; Function Attrs: mustprogress uwtable
define void @_ZN6icu_7713DecimalFormat27fieldPositionIteratorHelperERKNS_6number4impl20UFormattedNumberDataEPNS_21FieldPositionIteratorEiR10UErrorCode(ptr noundef nonnull align 8 dereferenceable(408) %0, ptr noundef %1, i32 noundef %2, ptr noundef nonnull align 4 dereferenceable(4) %3) #1 align 2 personality ptr @__gxx_personality_v0 {
  %5 = alloca ptr, align 8
  %6 = alloca ptr, align 8
  %7 = alloca i32, align 4
  %8 = alloca ptr, align 8
  %9 = alloca %"class.icu_77::FieldPositionIteratorHandler", align 8
  %10 = alloca ptr, align 8
  %11 = alloca i32, align 4
  store ptr %0, ptr %5, align 8, !tbaa !216
  store ptr %1, ptr %6, align 8, !tbaa !232
  store i32 %2, ptr %7, align 4, !tbaa !14
  store ptr %3, ptr %8, align 8, !tbaa !22
  %12 = load ptr, ptr %8, align 8, !tbaa !22
  %13 = load i32, ptr %12, align 4, !tbaa !15
  %14 = call noundef signext i8 @_ZL9U_SUCCESS10UErrorCode(i32 noundef %13)
  %15 = icmp ne i8 %14, 0
  br i1 %15, label %16, label %31

16:                                               ; preds = %4
  %17 = load ptr, ptr %6, align 8, !tbaa !232
  %18 = icmp ne ptr %17, null
  br i1 %18, label %19, label %31

19:                                               ; preds = %16
  call void @llvm.lifetime.start.p0(i64 40, ptr %9) #15
  %20 = load ptr, ptr %6, align 8, !tbaa !232
  %21 = load ptr, ptr %8, align 8, !tbaa !22
  call void @_ZN6icu_7728FieldPositionIteratorHandlerC1EPNS_21FieldPositionIteratorER10UErrorCode(ptr noundef nonnull align 8 dereferenceable(40) %9, ptr noundef %20, ptr noundef nonnull align 4 dereferenceable(4) %21)
  %22 = load i32, ptr %7, align 4, !tbaa !14
  invoke void @_ZN6icu_7720FieldPositionHandler8setShiftEi(ptr noundef nonnull align 8 dereferenceable(12) %9, i32 noundef %22)
          to label %23 unwind label %27

23:                                               ; preds = %19
  %24 = load ptr, ptr %5, align 8, !tbaa !216
  %25 = load ptr, ptr %8, align 8, !tbaa !22
  invoke void @_ZNK6icu_7731FormattedValueStringBuilderImpl20getAllFieldPositionsERNS_28FieldPositionIteratorHandlerER10UErrorCode(ptr noundef nonnull align 8 dereferenceable(300) %24, ptr noundef nonnull align 8 dereferenceable(40) %9, ptr noundef nonnull align 4 dereferenceable(4) %25)
          to label %26 unwind label %27

26:                                               ; preds = %23
  call void @_ZN6icu_7728FieldPositionIteratorHandlerD1Ev(ptr noundef nonnull align 8 dereferenceable(40) %9) #15
  call void @llvm.lifetime.end.p0(i64 40, ptr %9) #15
  br label %31

27:                                               ; preds = %23, %19
  %28 = landingpad { ptr, i32 }
          cleanup
  %29 = extractvalue { ptr, i32 } %28, 0
  store ptr %29, ptr %10, align 8
  %30 = extractvalue { ptr, i32 } %28, 1
  store i32 %30, ptr %11, align 4
  call void @_ZN6icu_7728FieldPositionIteratorHandlerD1Ev(ptr noundef nonnull align 8 dereferenceable(40) %9) #15
  call void @llvm.lifetime.end.p0(i64 40, ptr %9) #15
  br label %32

31:                                               ; preds = %26, %16, %4
  ret void

32:                                               ; preds = %27
  %33 = load ptr, ptr %10, align 8
  %34 = load i32, ptr %11, align 4
  %35 = insertvalue { ptr, i32 } poison, ptr %33, 0
  %36 = insertvalue { ptr, i32 } %35, i32 %34, 1
  resume { ptr, i32 } %36
}