; Function Attrs: mustprogress uwtable
define void @_ZN6icu_7713DecimalFormat27fieldPositionIteratorHelperERKNS_6number4impl20UFormattedNumberDataEPNS_21FieldPositionIteratorEiR10UErrorCode(ptr noundef nonnull align 8 dereferenceable(408) %0, ptr noundef %1, i32 noundef %2, ptr noundef nonnull align 4 dereferenceable(4) %3) local_unnamed_addr #1 align 2 personality ptr @__gxx_personality_v0 {
  %5 = alloca %"class.icu_77::FieldPositionIteratorHandler", align 8
  %6 = load i32, ptr %3, align 4, !tbaa !13
  %7 = icmp slt i32 %6, 1
  %8 = icmp ne ptr %1, null
  %or.cond = and i1 %8, %7
  br i1 %or.cond, label %9, label %14

9:                                                ; preds = %4
  call void @llvm.lifetime.start.p0(i64 40, ptr nonnull %5) #19
  call void @_ZN6icu_7728FieldPositionIteratorHandlerC1EPNS_21FieldPositionIteratorER10UErrorCode(ptr noundef nonnull align 8 dereferenceable(40) %5, ptr noundef nonnull %1, ptr noundef nonnull align 4 dereferenceable(4) %3)
  invoke void @_ZN6icu_7720FieldPositionHandler8setShiftEi(ptr noundef nonnull align 8 dereferenceable(12) %5, i32 noundef %2)
          to label %10 unwind label %12

10:                                               ; preds = %9
  invoke void @_ZNK6icu_7731FormattedValueStringBuilderImpl20getAllFieldPositionsERNS_28FieldPositionIteratorHandlerER10UErrorCode(ptr noundef nonnull align 8 dereferenceable(300) %0, ptr noundef nonnull align 8 dereferenceable(40) %5, ptr noundef nonnull align 4 dereferenceable(4) %3)
          to label %11 unwind label %12

11:                                               ; preds = %10
  call void @_ZN6icu_7728FieldPositionIteratorHandlerD1Ev(ptr noundef nonnull align 8 dereferenceable(40) %5) #19
  call void @llvm.lifetime.end.p0(i64 40, ptr nonnull %5) #19
  br label %14

12:                                               ; preds = %10, %9
  %13 = landingpad { ptr, i32 }
          cleanup
  call void @_ZN6icu_7728FieldPositionIteratorHandlerD1Ev(ptr noundef nonnull align 8 dereferenceable(40) %5) #19
  call void @llvm.lifetime.end.p0(i64 40, ptr nonnull %5) #19
  resume { ptr, i32 } %13

14:                                               ; preds = %11, %4
  ret void
}